; Function Attrs: nounwind uwtable
define void @lv_subject_init_group(ptr noundef %0, ptr noundef %1, i32 noundef %2) local_unnamed_addr #0 {
  %4 = getelementptr inbounds nuw i8, ptr %0, i64 48
  %5 = load i32, ptr %4, align 8
  %6 = and i32 %5, -268435456
  %7 = shl i32 %2, 4
  %8 = and i32 %7, 268435440
  %9 = or disjoint i32 %8, %6
  %10 = or disjoint i32 %9, 5
  store i32 %10, ptr %4, align 8
  tail call void @lv_ll_init(ptr noundef %0, i32 noundef 40) #9
  %11 = getelementptr inbounds nuw i8, ptr %0, i64 24
  store ptr %1, ptr %11, align 8, !tbaa !3
  %.not = icmp eq i32 %2, 0
  br i1 %.not, label %._crit_edge, label %.lr.ph.preheader

.lr.ph.preheader:                                 ; preds = %3
  %wide.trip.count = zext i32 %2 to i64
  br label %.lr.ph

.lr.ph:                                           ; preds = %.lr.ph.preheader, %lv_subject_add_observer.exit
  %indvars.iv = phi i64 [ 0, %.lr.ph.preheader ], [ %indvars.iv.next, %lv_subject_add_observer.exit ]
  %12 = getelementptr inbounds nuw ptr, ptr %1, i64 %indvars.iv
  %13 = load ptr, ptr %12, align 8, !tbaa !7
  %.not.i.i = icmp eq ptr %13, null
  br i1 %.not.i.i, label %.preheader.i.i, label %14

.preheader.i.i:                                   ; preds = %.lr.ph, %.preheader.i.i
  br label %.preheader.i.i

14:                                               ; preds = %.lr.ph
  %15 = getelementptr inbounds nuw i8, ptr %13, i64 48
  %16 = load i32, ptr %15, align 8
  %17 = and i32 %16, 15
  %18 = icmp eq i32 %17, 0
  br i1 %18, label %lv_subject_add_observer.exit, label %19

19:                                               ; preds = %14
  %20 = tail call ptr @lv_ll_ins_tail(ptr noundef nonnull %13) #9
  %.not28.i.i = icmp eq ptr %20, null
  br i1 %.not28.i.i, label %.preheader31.i.i, label %21

.preheader31.i.i:                                 ; preds = %19, %.preheader31.i.i
  br label %.preheader31.i.i

21:                                               ; preds = %19
  tail call void @lv_memset(ptr noundef nonnull %20, i8 noundef zeroext 0, i64 noundef 40) #9
  store ptr %13, ptr %20, align 8, !tbaa !9
  %22 = getelementptr inbounds nuw i8, ptr %20, i64 8
  store ptr @group_notify_cb, ptr %22, align 8, !tbaa !12
  %23 = getelementptr inbounds nuw i8, ptr %20, i64 24
  store ptr %0, ptr %23, align 8, !tbaa !13
  %24 = getelementptr inbounds nuw i8, ptr %20, i64 16
  store ptr null, ptr %24, align 8, !tbaa !14
  %25 = getelementptr inbounds nuw i8, ptr %20, i64 32
  %26 = load i8, ptr %25, align 8
  %27 = or i8 %26, 4
  store i8 %27, ptr %25, align 8
  tail call void @lv_subject_notify(ptr noundef %0)
  %.pre.i = load i8, ptr %25, align 8
  %28 = and i8 %.pre.i, -5
  store i8 %28, ptr %25, align 8
  br label %lv_subject_add_observer.exit

lv_subject_add_observer.exit:                     ; preds = %14, %21
  %indvars.iv.next = add nuw nsw i64 %indvars.iv, 1
  %exitcond.not = icmp eq i64 %indvars.iv.next, %wide.trip.count
  br i1 %exitcond.not, label %._crit_edge, label %.lr.ph, !llvm.loop !15

._crit_edge:                                      ; preds = %lv_subject_add_observer.exit, %3
  ret void
}